target datalayout = "e-m:e-p270:32:32-p271:32:32-p272:64:64-i64:64-i128:128-f80:128-n8:16:32:64-S128"
target triple = "x86_64-pc-linux-gnu"

%class.QString = type { %struct.QArrayDataPointer }
%struct.QArrayDataPointer = type { ptr, ptr, i64 }
%struct._stat_tap_table_ui = type { i32, ptr, ptr, ptr, ptr, ptr, ptr, ptr, ptr, i64, ptr, i64, ptr, ptr, i32 }
%class.SimpleStatisticsDialog = type { %class.TapParameterDialog, ptr }
%class.TapParameterDialog = type { %class.WiresharkDialog.base, ptr, %class.QMenu, %class.QList.1, i32, ptr }
%class.WiresharkDialog.base = type <{ %class.GeometryStateDialog, ptr, i8, [7 x i8], %class.QString, %class.QList, i32, i8 }>
%class.GeometryStateDialog = type { %class.QDialog, %class.QString, ptr }
%class.QDialog = type { %class.QWidget }
%class.QWidget = type { %class.QObject, %class.QPaintDevice.base, ptr }
%class.QObject = type { ptr, %class.QScopedPointer }
%class.QScopedPointer = type { ptr }
%class.QPaintDevice.base = type <{ ptr, i16 }>
%class.QList = type { %struct.QArrayDataPointer.0 }
%struct.QArrayDataPointer.0 = type { ptr, ptr, i64 }
%class.QMenu = type { %class.QWidget }
%class.QList.1 = type { %struct.QArrayDataPointer.4 }
%struct.QArrayDataPointer.4 = type { ptr, ptr, i64 }

@_ZTV22SimpleStatisticsDialog = external unnamed_addr constant { [68 x ptr], [10 x ptr] }, align 8

; Function Attrs: mustprogress nounwind null_pointer_is_valid sspstrong uwtable
define void @_ZN22SimpleStatisticsDialogD2Ev(ptr noundef align 8 dereferenceable_or_null(240) %0) unnamed_addr #1 align 2 personality ptr @__gxx_personality_v0 {
  %2 = alloca ptr, align 8
  store ptr %0, ptr %2, align 8
  %3 = load ptr, ptr %2, align 8
  store ptr getelementptr inbounds inrange(-16, 528) ({ [68 x ptr], [10 x ptr] }, ptr @_ZTV22SimpleStatisticsDialog, i32 0, i32 0, i32 2), ptr %3, align 8
  %4 = getelementptr inbounds i8, ptr %3, i64 16
  store ptr getelementptr inbounds inrange(-16, 64) ({ [68 x ptr], [10 x ptr] }, ptr @_ZTV22SimpleStatisticsDialog, i32 0, i32 1, i32 2), ptr %4, align 8
  %5 = getelementptr inbounds nuw %class.SimpleStatisticsDialog, ptr %3, i32 0, i32 1
  %6 = load ptr, ptr %5, align 8
  %7 = getelementptr inbounds nuw %struct._stat_tap_table_ui, ptr %6, i32 0, i32 14
  %8 = load i32, ptr %7, align 8
  %9 = add i32 %8, -1
  store i32 %9, ptr %7, align 8
  %10 = getelementptr inbounds nuw %class.SimpleStatisticsDialog, ptr %3, i32 0, i32 1
  %11 = load ptr, ptr %10, align 8
  %12 = getelementptr inbounds nuw %struct._stat_tap_table_ui, ptr %11, i32 0, i32 14
  %13 = load i32, ptr %12, align 8
  %14 = icmp eq i32 %13, 0
  br i1 %14, label %15, label %26

15:                                               ; preds = %1
  %16 = getelementptr inbounds nuw %class.SimpleStatisticsDialog, ptr %3, i32 0, i32 1
  %17 = load ptr, ptr %16, align 8
  %18 = getelementptr inbounds nuw %struct._stat_tap_table_ui, ptr %17, i32 0, i32 13
  %19 = load ptr, ptr %18, align 8
  %20 = icmp ne ptr %19, null
  br i1 %20, label %21, label %25

21:                                               ; preds = %15
  %22 = getelementptr inbounds nuw %class.SimpleStatisticsDialog, ptr %3, i32 0, i32 1
  %23 = load ptr, ptr %22, align 8
  invoke void @free_stat_tables(ptr noundef %23)
          to label %24 unwind label %27

24:                                               ; preds = %21
  br label %25

25:                                               ; preds = %24, %15
  br label %26

26:                                               ; preds = %25, %1
  call void @_ZN18TapParameterDialogD2Ev(ptr noundef align 8 dereferenceable_or_null(232) %3) #2
  ret void

27:                                               ; preds = %21
  %28 = landingpad { ptr, i32 }
          catch ptr null
  %29 = extractvalue { ptr, i32 } %28, 0
  call void @__clang_call_terminate(ptr %29) #28
  unreachable
}